target datalayout = "e-m:e-p270:32:32-p271:32:32-p272:64:64-i64:64-i128:128-f80:128-n8:16:32:64-S128"
target triple = "x86_64-pc-linux-gnu"

%"class.std::_Function_base" = type { %"union.std::_Any_data", ptr }
%"union.std::_Any_data" = type { %"union.std::_Nocopy_types" }
%"union.std::_Nocopy_types" = type { { i64, i64 } }
%"class.gmx::EnergyData" = type { %"class.std::unique_ptr", %"class.std::unique_ptr.41", %class.ekinstate_t, i8, [3 x [3 x float]], [3 x [3 x float]], [3 x [3 x float]], [3 x [3 x float]], [3 x float], i64, i64, i64, i64, i8, i8, i32, ptr, ptr, %"class.std::vector.52", %"class.std::function.57", ptr, ptr, ptr, ptr, ptr, ptr, ptr, ptr, ptr, ptr, ptr, i8, ptr }
%"class.std::unique_ptr" = type { %"struct.std::__uniq_ptr_data" }
%"struct.std::__uniq_ptr_data" = type { %"class.std::__uniq_ptr_impl" }
%"class.std::__uniq_ptr_impl" = type { %"class.std::tuple" }
%"class.std::tuple" = type { %"struct.std::_Tuple_impl" }
%"struct.std::_Tuple_impl" = type { %"struct.std::_Head_base.40" }
%"struct.std::_Head_base.40" = type { ptr }
%"class.std::unique_ptr.41" = type { %"struct.std::__uniq_ptr_data.42" }
%"struct.std::__uniq_ptr_data.42" = type { %"class.std::__uniq_ptr_impl.43" }
%"class.std::__uniq_ptr_impl.43" = type { %"class.std::tuple.44" }
%"class.std::tuple.44" = type { %"struct.std::_Tuple_impl.45" }
%"struct.std::_Tuple_impl.45" = type { %"struct.std::_Head_base.48" }
%"struct.std::_Head_base.48" = type { ptr }
%class.ekinstate_t = type <{ i8, [3 x i8], i32, ptr, ptr, ptr, [3 x [3 x float]], [4 x i8], %"class.std::vector", %"class.std::vector", %"class.std::vector", float, float, i8, [7 x i8] }>
%"class.std::vector" = type { %"struct.std::_Vector_base" }
%"struct.std::_Vector_base" = type { %"struct.std::_Vector_base<double, std::allocator<double>>::_Vector_impl" }
%"struct.std::_Vector_base<double, std::allocator<double>>::_Vector_impl" = type { %"struct.std::_Vector_base<double, std::allocator<double>>::_Vector_impl_data" }
%"struct.std::_Vector_base<double, std::allocator<double>>::_Vector_impl_data" = type { ptr, ptr, ptr }
%"class.std::vector.52" = type { %"struct.std::_Vector_base.53" }
%"struct.std::_Vector_base.53" = type { %"struct.std::_Vector_base<std::function<float (long, double)>, std::allocator<std::function<float (long, double)>>>::_Vector_impl" }
%"struct.std::_Vector_base<std::function<float (long, double)>, std::allocator<std::function<float (long, double)>>>::_Vector_impl" = type { %"struct.std::_Vector_base<std::function<float (long, double)>, std::allocator<std::function<float (long, double)>>>::_Vector_impl_data" }
%"struct.std::_Vector_base<std::function<float (long, double)>, std::allocator<std::function<float (long, double)>>>::_Vector_impl_data" = type { ptr, ptr, ptr }
%"class.std::function.57" = type { %"class.std::_Function_base", ptr }
%struct.t_inputrec = type { i32, i32, i64, i32, i64, i32, i32, i32, i32, i32, i32, i32, i32, i32, i32, i32, double, double, i8, %"class.std::vector.59", float, float, float, i32, i32, i32, i32, float, float, i32, float, i32, i32, i8, i8, i32, float, i32, i32, i8, %struct.PressureCouplingOptions, %"class.std::vector.64", %"class.std::vector.64", i32, float, float, float, float, i32, i32, float, float, float, float, i8, i32, i32, float, float, i32, float, float, i32, %"class.std::unique_ptr.69", i8, %"class.std::unique_ptr.77", i8, %"class.std::unique_ptr.85", i32, float, i32, i8, i32, float, float, float, i32, float, float, i32, float, i32, i32, i32, i32, float, i32, i8, float, i64, i32, i32, float, [2 x i32], [2 x float], float, i8, %"class.std::unique_ptr.93", i8, %"class.std::unique_ptr.101", i8, %"class.std::unique_ptr.109", i32, ptr, i8, ptr, float, [3 x [3 x float]], i32, i32, i32, i32, float, float, float, float, %struct.t_grpopts, i8, i8, i8, i8, ptr, %"class.std::unique_ptr.117" }
%"class.std::vector.59" = type { %"struct.std::_Vector_base.60" }
%"struct.std::_Vector_base.60" = type { %"struct.std::_Vector_base<gmx::MtsLevel, std::allocator<gmx::MtsLevel>>::_Vector_impl" }
%"struct.std::_Vector_base<gmx::MtsLevel, std::allocator<gmx::MtsLevel>>::_Vector_impl" = type { %"struct.std::_Vector_base<gmx::MtsLevel, std::allocator<gmx::MtsLevel>>::_Vector_impl_data" }
%"struct.std::_Vector_base<gmx::MtsLevel, std::allocator<gmx::MtsLevel>>::_Vector_impl_data" = type { ptr, ptr, ptr }
%struct.PressureCouplingOptions = type { i32, i32, i32, float, [3 x [3 x float]], [3 x [3 x float]], i32 }
%"class.std::vector.64" = type { %"struct.std::_Vector_base.65" }
%"struct.std::_Vector_base.65" = type { %"struct.std::_Vector_base<gmx::BasicVector<float>, std::allocator<gmx::BasicVector<float>>>::_Vector_impl" }
%"struct.std::_Vector_base<gmx::BasicVector<float>, std::allocator<gmx::BasicVector<float>>>::_Vector_impl" = type { %"struct.std::_Vector_base<gmx::BasicVector<float>, std::allocator<gmx::BasicVector<float>>>::_Vector_impl_data" }
%"struct.std::_Vector_base<gmx::BasicVector<float>, std::allocator<gmx::BasicVector<float>>>::_Vector_impl_data" = type { ptr, ptr, ptr }
%"class.std::unique_ptr.69" = type { %"struct.std::__uniq_ptr_data.70" }
%"struct.std::__uniq_ptr_data.70" = type { %"class.std::__uniq_ptr_impl.71" }
%"class.std::__uniq_ptr_impl.71" = type { %"class.std::tuple.72" }
%"class.std::tuple.72" = type { %"struct.std::_Tuple_impl.73" }
%"struct.std::_Tuple_impl.73" = type { %"struct.std::_Head_base.76" }
%"struct.std::_Head_base.76" = type { ptr }
%"class.std::unique_ptr.77" = type { %"struct.std::__uniq_ptr_data.78" }
%"struct.std::__uniq_ptr_data.78" = type { %"class.std::__uniq_ptr_impl.79" }
%"class.std::__uniq_ptr_impl.79" = type { %"class.std::tuple.80" }
%"class.std::tuple.80" = type { %"struct.std::_Tuple_impl.81" }
%"struct.std::_Tuple_impl.81" = type { %"struct.std::_Head_base.84" }
%"struct.std::_Head_base.84" = type { ptr }
%"class.std::unique_ptr.85" = type { %"struct.std::__uniq_ptr_data.86" }
%"struct.std::__uniq_ptr_data.86" = type { %"class.std::__uniq_ptr_impl.87" }
%"class.std::__uniq_ptr_impl.87" = type { %"class.std::tuple.88" }
%"class.std::tuple.88" = type { %"struct.std::_Tuple_impl.89" }
%"struct.std::_Tuple_impl.89" = type { %"struct.std::_Head_base.92" }
%"struct.std::_Head_base.92" = type { ptr }
%"class.std::unique_ptr.93" = type { %"struct.std::__uniq_ptr_data.94" }
%"struct.std::__uniq_ptr_data.94" = type { %"class.std::__uniq_ptr_impl.95" }
%"class.std::__uniq_ptr_impl.95" = type { %"class.std::tuple.96" }
%"class.std::tuple.96" = type { %"struct.std::_Tuple_impl.97" }
%"struct.std::_Tuple_impl.97" = type { %"struct.std::_Head_base.100" }
%"struct.std::_Head_base.100" = type { ptr }
%"class.std::unique_ptr.101" = type { %"struct.std::__uniq_ptr_data.102" }
%"struct.std::__uniq_ptr_data.102" = type { %"class.std::__uniq_ptr_impl.103" }
%"class.std::__uniq_ptr_impl.103" = type { %"class.std::tuple.104" }
%"class.std::tuple.104" = type { %"struct.std::_Tuple_impl.105" }
%"struct.std::_Tuple_impl.105" = type { %"struct.std::_Head_base.108" }
%"struct.std::_Head_base.108" = type { ptr }
%"class.std::unique_ptr.109" = type { %"struct.std::__uniq_ptr_data.110" }
%"struct.std::__uniq_ptr_data.110" = type { %"class.std::__uniq_ptr_impl.111" }
%"class.std::__uniq_ptr_impl.111" = type { %"class.std::tuple.112" }
%"class.std::tuple.112" = type { %"struct.std::_Tuple_impl.113" }
%"struct.std::_Tuple_impl.113" = type { %"struct.std::_Head_base.116" }
%"struct.std::_Head_base.116" = type { ptr }
%struct.t_grpopts = type <{ i32, i32, i32, i32, i32, [4 x i8], ptr, ptr, ptr, ptr, ptr, ptr, ptr, ptr, ptr, ptr, i32, [4 x i8] }>
%"class.std::unique_ptr.117" = type { %"struct.std::__uniq_ptr_data.118" }
%"struct.std::__uniq_ptr_data.118" = type { %"class.std::__uniq_ptr_impl.119" }
%"class.std::__uniq_ptr_impl.119" = type { %"class.std::tuple.120" }
%"class.std::tuple.120" = type { %"struct.std::_Tuple_impl.121" }
%"struct.std::_Tuple_impl.121" = type { %"struct.std::_Head_base.124" }
%"struct.std::_Head_base.124" = type { ptr }

; Function Attrs: mustprogress nounwind uwtable
define linkonce_odr noundef nonnull align 8 dereferenceable(8) ptr @_ZNSt10_Head_baseILm0EPN3gmx12EnergyOutputELb0EE7_M_headERKS3_(ptr noundef nonnull align 8 dereferenceable(8) %0) #1 comdat align 2 {
  %2 = alloca ptr, align 8
  store ptr %0, ptr %2, align 8, !tbaa !232
  %3 = load ptr, ptr %2, align 8, !tbaa !232
  %4 = getelementptr inbounds nuw %"struct.std::_Head_base.48", ptr %3, i32 0, i32 0
  ret ptr %4
}

; Function Attrs: mustprogress nounwind uwtable
define linkonce_odr noundef nonnull align 8 dereferenceable(8) ptr @_ZNSt11_Tuple_implILm0EJPN3gmx12EnergyOutputESt14default_deleteIS1_EEE7_M_headERKS5_(ptr noundef nonnull align 8 dereferenceable(8) %0) #1 comdat align 2 {
  %2 = alloca ptr, align 8
  store ptr %0, ptr %2, align 8, !tbaa !228
  %3 = load ptr, ptr %2, align 8, !tbaa !228
  %4 = call noundef nonnull align 8 dereferenceable(8) ptr @_ZNSt10_Head_baseILm0EPN3gmx12EnergyOutputELb0EE7_M_headERKS3_(ptr noundef nonnull align 8 dereferenceable(8) %3) #22
  ret ptr %4
}

; Function Attrs: mustprogress nounwind uwtable
define linkonce_odr noundef nonnull align 8 dereferenceable(8) ptr @_ZSt12__get_helperILm0EPN3gmx12EnergyOutputEJSt14default_deleteIS1_EEERKT0_RKSt11_Tuple_implIXT_EJS5_DpT1_EE(ptr noundef nonnull align 8 dereferenceable(8) %0) #1 comdat {
  %2 = alloca ptr, align 8
  store ptr %0, ptr %2, align 8, !tbaa !228
  %3 = load ptr, ptr %2, align 8, !tbaa !228
  %4 = call noundef nonnull align 8 dereferenceable(8) ptr @_ZNSt11_Tuple_implILm0EJPN3gmx12EnergyOutputESt14default_deleteIS1_EEE7_M_headERKS5_(ptr noundef nonnull align 8 dereferenceable(8) %3) #22
  ret ptr %4
}

; Function Attrs: mustprogress nounwind uwtable
define linkonce_odr noundef nonnull align 8 dereferenceable(8) ptr @_ZSt3getILm0EJPN3gmx12EnergyOutputESt14default_deleteIS1_EEERKNSt13tuple_elementIXT_ESt5tupleIJDpT0_EEE4typeERKS9_(ptr noundef nonnull align 8 dereferenceable(8) %0) #1 comdat {
  %2 = alloca ptr, align 8
  store ptr %0, ptr %2, align 8, !tbaa !226
  %3 = load ptr, ptr %2, align 8, !tbaa !226
  %4 = call noundef nonnull align 8 dereferenceable(8) ptr @_ZSt12__get_helperILm0EPN3gmx12EnergyOutputEJSt14default_deleteIS1_EEERKT0_RKSt11_Tuple_implIXT_EJS5_DpT1_EE(ptr noundef nonnull align 8 dereferenceable(8) %3) #22
  ret ptr %4
}

; Function Attrs: mustprogress nounwind uwtable
define linkonce_odr noundef ptr @_ZNKSt15__uniq_ptr_implIN3gmx12EnergyOutputESt14default_deleteIS1_EE6_M_ptrEv(ptr noundef nonnull align 8 dereferenceable(8) %0) #1 comdat align 2 {
  %2 = alloca ptr, align 8
  store ptr %0, ptr %2, align 8, !tbaa !224
  %3 = load ptr, ptr %2, align 8
  %4 = getelementptr inbounds nuw %"class.std::__uniq_ptr_impl.43", ptr %3, i32 0, i32 0
  %5 = call noundef nonnull align 8 dereferenceable(8) ptr @_ZSt3getILm0EJPN3gmx12EnergyOutputESt14default_deleteIS1_EEERKNSt13tuple_elementIXT_ESt5tupleIJDpT0_EEE4typeERKS9_(ptr noundef nonnull align 8 dereferenceable(8) %4) #22
  %6 = load ptr, ptr %5, align 8, !tbaa !192
  ret ptr %6
}

; Function Attrs: mustprogress nounwind uwtable
define linkonce_odr noundef ptr @_ZNKSt10unique_ptrIN3gmx12EnergyOutputESt14default_deleteIS1_EE3getEv(ptr noundef nonnull align 8 dereferenceable(8) %0) #1 comdat align 2 {
  %2 = alloca ptr, align 8
  store ptr %0, ptr %2, align 8, !tbaa !171
  %3 = load ptr, ptr %2, align 8
  %4 = getelementptr inbounds nuw %"class.std::unique_ptr.41", ptr %3, i32 0, i32 0
  %5 = call noundef ptr @_ZNKSt15__uniq_ptr_implIN3gmx12EnergyOutputESt14default_deleteIS1_EE6_M_ptrEv(ptr noundef nonnull align 8 dereferenceable(8) %4) #22
  ret ptr %5
}

; Function Attrs: inlinehint mustprogress nounwind uwtable
define linkonce_odr noundef zeroext i1 @_Z11do_per_stepll(i64 noundef %0, i64 noundef %1) #2 comdat {
  %3 = alloca i1, align 1
  %4 = alloca i64, align 8
  %5 = alloca i64, align 8
  store i64 %0, ptr %4, align 8, !tbaa !9
  store i64 %1, ptr %5, align 8, !tbaa !9
  %6 = load i64, ptr %5, align 8, !tbaa !9
  %7 = icmp ne i64 %6, 0
  br i1 %7, label %8, label %13

8:                                                ; preds = %2
  %9 = load i64, ptr %4, align 8, !tbaa !9
  %10 = load i64, ptr %5, align 8, !tbaa !9
  %11 = srem i64 %9, %10
  %12 = icmp eq i64 %11, 0
  store i1 %12, ptr %3, align 1
  br label %14

13:                                               ; preds = %2
  store i1 false, ptr %3, align 1
  br label %14

14:                                               ; preds = %13, %8
  %15 = load i1, ptr %3, align 1
  ret i1 %15
}

; Function Attrs: mustprogress nounwind uwtable
define linkonce_odr noundef ptr @_ZNKSt10unique_ptrIN3gmx12EnergyOutputESt14default_deleteIS1_EEptEv(ptr noundef nonnull align 8 dereferenceable(8) %0) #1 comdat align 2 {
  %2 = alloca ptr, align 8
  store ptr %0, ptr %2, align 8, !tbaa !171
  %3 = load ptr, ptr %2, align 8
  %4 = call noundef ptr @_ZNKSt10unique_ptrIN3gmx12EnergyOutputESt14default_deleteIS1_EE3getEv(ptr noundef nonnull align 8 dereferenceable(8) %3) #22
  ret ptr %4
}

; Function Attrs: mustprogress uwtable
define void @_ZN3gmx10EnergyData5writeEP10gmx_mdoutfldbb(ptr noundef nonnull align 8 dereferenceable(552) %0, ptr noundef %1, i64 noundef %2, double noundef %3, i1 noundef zeroext %4, i1 noundef zeroext %5) #0 align 2 {
  %7 = alloca ptr, align 8
  %8 = alloca ptr, align 8
  %9 = alloca i64, align 8
  %10 = alloca double, align 8
  %11 = alloca i8, align 1
  %12 = alloca i8, align 1
  %13 = alloca i8, align 1
  %14 = alloca i8, align 1
  %15 = alloca ptr, align 8
  store ptr %0, ptr %7, align 8, !tbaa !129
  store ptr %1, ptr %8, align 8, !tbaa !115
  store i64 %2, ptr %9, align 8, !tbaa !9
  store double %3, ptr %10, align 8, !tbaa !11
  %16 = zext i1 %4 to i8
  store i8 %16, ptr %11, align 1, !tbaa !31
  %17 = zext i1 %5 to i8
  store i8 %17, ptr %12, align 1, !tbaa !31
  %18 = load ptr, ptr %7, align 8
  %19 = load i8, ptr %12, align 1, !tbaa !31, !range !28, !noundef !29
  %20 = trunc i8 %19 to i1
  br i1 %20, label %21, label %28

21:                                               ; preds = %6
  %22 = getelementptr inbounds nuw %"class.gmx::EnergyData", ptr %18, i32 0, i32 1
  %23 = call noundef ptr @_ZNKSt10unique_ptrIN3gmx12EnergyOutputESt14default_deleteIS1_EEptEv(ptr noundef nonnull align 8 dereferenceable(8) %22) #22
  %24 = getelementptr inbounds nuw %"class.gmx::EnergyData", ptr %18, i32 0, i32 26
  %25 = load ptr, ptr %24, align 8, !tbaa !156
  %26 = load i64, ptr %9, align 8, !tbaa !9
  %27 = load double, ptr %10, align 8, !tbaa !11
  call void @_ZN3gmx12EnergyOutput11printHeaderEP8_IO_FILEld(ptr noundef %25, i64 noundef %26, double noundef %27)
  br label %28

28:                                               ; preds = %21, %6
  call void @llvm.lifetime.start.p0(i64 1, ptr %13) #22
  %29 = load i64, ptr %9, align 8, !tbaa !9
  %30 = getelementptr inbounds nuw %"class.gmx::EnergyData", ptr %18, i32 0, i32 20
  %31 = load ptr, ptr %30, align 8, !tbaa !152
  %32 = getelementptr inbounds nuw %struct.t_inputrec, ptr %31, i32 0, i32 72
  %33 = load i32, ptr %32, align 8, !tbaa !578
  %34 = sext i32 %33 to i64
  %35 = call noundef zeroext i1 @_Z11do_per_stepll(i64 noundef %29, i64 noundef %34)
  %36 = zext i1 %35 to i8
  store i8 %36, ptr %13, align 1, !tbaa !31
  call void @llvm.lifetime.start.p0(i64 1, ptr %14) #22
  %37 = load i64, ptr %9, align 8, !tbaa !9
  %38 = getelementptr inbounds nuw %"class.gmx::EnergyData", ptr %18, i32 0, i32 20
  %39 = load ptr, ptr %38, align 8, !tbaa !152
  %40 = getelementptr inbounds nuw %struct.t_inputrec, ptr %39, i32 0, i32 76
  %41 = load i32, ptr %40, align 8, !tbaa !579
  %42 = sext i32 %41 to i64
  %43 = call noundef zeroext i1 @_Z11do_per_stepll(i64 noundef %37, i64 noundef %42)
  %44 = zext i1 %43 to i8
  store i8 %44, ptr %14, align 1, !tbaa !31
  call void @llvm.lifetime.start.p0(i64 8, ptr %15) #22
  store ptr null, ptr %15, align 8, !tbaa !580
  %45 = getelementptr inbounds nuw %"class.gmx::EnergyData", ptr %18, i32 0, i32 1
  %46 = call noundef ptr @_ZNKSt10unique_ptrIN3gmx12EnergyOutputESt14default_deleteIS1_EEptEv(ptr noundef nonnull align 8 dereferenceable(8) %45) #22
  %47 = load ptr, ptr %8, align 8, !tbaa !115
  %48 = call noundef ptr @_Z17mdoutf_get_fp_eneP10gmx_mdoutf(ptr noundef %47)
  %49 = load i8, ptr %11, align 1, !tbaa !31, !range !28, !noundef !29
  %50 = trunc i8 %49 to i1
  %51 = load i8, ptr %13, align 1, !tbaa !31, !range !28, !noundef !29
  %52 = trunc i8 %51 to i1
  %53 = load i8, ptr %14, align 1, !tbaa !31, !range !28, !noundef !29
  %54 = trunc i8 %53 to i1
  %55 = load i8, ptr %12, align 1, !tbaa !31, !range !28, !noundef !29
  %56 = trunc i8 %55 to i1
  br i1 %56, label %57, label %60

57:                                               ; preds = %28
  %58 = getelementptr inbounds nuw %"class.gmx::EnergyData", ptr %18, i32 0, i32 26
  %59 = load ptr, ptr %58, align 8, !tbaa !156
  br label %61

60:                                               ; preds = %28
  br label %61

61:                                               ; preds = %60, %57
  %62 = phi ptr [ %59, %57 ], [ null, %60 ]
  %63 = load i64, ptr %9, align 8, !tbaa !9
  %64 = load double, ptr %10, align 8, !tbaa !11
  %65 = getelementptr inbounds nuw %"class.gmx::EnergyData", ptr %18, i32 0, i32 27
  %66 = load ptr, ptr %65, align 8, !tbaa !157
  %67 = load ptr, ptr %15, align 8, !tbaa !580
  call void @_ZN3gmx12EnergyOutput21printStepToEnergyFileEP9ener_filebbbP8_IO_FILEldP8t_fcdataPNS_3AwhE(ptr noundef nonnull align 8 dereferenceable(392) %46, ptr noundef %48, i1 noundef zeroext %50, i1 noundef zeroext %52, i1 noundef zeroext %54, ptr noundef %62, i64 noundef %63, double noundef %64, ptr noundef %66, ptr noundef %67)
  call void @llvm.lifetime.end.p0(i64 8, ptr %15) #22
  call void @llvm.lifetime.end.p0(i64 1, ptr %14) #22
  call void @llvm.lifetime.end.p0(i64 1, ptr %13) #22
  ret void
}