; Function Attrs: mustprogress uwtable
define void @_ZN3gmx10EnergyData5writeEP10gmx_mdoutfldbb(ptr noundef nonnull readonly align 8 captures(none) dereferenceable(552) %0, ptr noundef %1, i64 noundef %2, double noundef %3, i1 noundef zeroext %4, i1 noundef zeroext %5) local_unnamed_addr #0 align 2 {
  br i1 %5, label %7, label %10

7:                                                ; preds = %6
  %8 = getelementptr inbounds nuw i8, ptr %0, i64 496
  %9 = load ptr, ptr %8, align 8, !tbaa !150
  tail call void @_ZN3gmx12EnergyOutput11printHeaderEP8_IO_FILEld(ptr noundef %9, i64 noundef %2, double noundef %3)
  br label %10

10:                                               ; preds = %7, %6
  %11 = getelementptr inbounds nuw i8, ptr %0, i64 448
  %12 = load ptr, ptr %11, align 8, !tbaa !145
  %13 = getelementptr inbounds nuw i8, ptr %12, i64 480
  %14 = load i32, ptr %13, align 8, !tbaa !389
  %.not.i = icmp eq i32 %14, 0
  br i1 %.not.i, label %_Z11do_per_stepll.exit, label %15

15:                                               ; preds = %10
  %16 = sext i32 %14 to i64
  %17 = srem i64 %2, %16
  %18 = icmp eq i64 %17, 0
  br label %_Z11do_per_stepll.exit

_Z11do_per_stepll.exit:                           ; preds = %10, %15
  %.0.i = phi i1 [ %18, %15 ], [ false, %10 ]
  %19 = getelementptr inbounds nuw i8, ptr %12, i64 496
  %20 = load i32, ptr %19, align 8, !tbaa !390
  %.not.i13 = icmp eq i32 %20, 0
  br i1 %.not.i13, label %_Z11do_per_stepll.exit15, label %21

21:                                               ; preds = %_Z11do_per_stepll.exit
  %22 = sext i32 %20 to i64
  %23 = srem i64 %2, %22
  %24 = icmp eq i64 %23, 0
  br label %_Z11do_per_stepll.exit15

_Z11do_per_stepll.exit15:                         ; preds = %_Z11do_per_stepll.exit, %21
  %.0.i14 = phi i1 [ %24, %21 ], [ false, %_Z11do_per_stepll.exit ]
  %25 = getelementptr inbounds nuw i8, ptr %0, i64 8
  %26 = load ptr, ptr %25, align 8, !tbaa !109
  %27 = tail call noundef ptr @_Z17mdoutf_get_fp_eneP10gmx_mdoutf(ptr noundef %1)
  %28 = getelementptr inbounds nuw i8, ptr %0, i64 496
  %29 = load ptr, ptr %28, align 8
  %30 = select i1 %5, ptr %29, ptr null
  %31 = getelementptr inbounds nuw i8, ptr %0, i64 504
  %32 = load ptr, ptr %31, align 8, !tbaa !151
  tail call void @_ZN3gmx12EnergyOutput21printStepToEnergyFileEP9ener_filebbbP8_IO_FILEldP8t_fcdataPNS_3AwhE(ptr noundef nonnull align 8 dereferenceable(392) %26, ptr noundef %27, i1 noundef zeroext %4, i1 noundef zeroext %.0.i, i1 noundef zeroext %.0.i14, ptr noundef %30, i64 noundef %2, double noundef %3, ptr noundef %32, ptr noundef null)
  ret void
}